; Function Attrs: mustprogress nounwind uwtable
define hidden void @_ZN14MacroAssembler21encode_klass_not_nullE8RegisterS0_(ptr noundef nonnull align 8 dereferenceable(40) %0, i32 %1, i32 %2) local_unnamed_addr #0 align 2 {
  %4 = load ptr, ptr @_ZN23CompressedKlassPointers5_baseE, align 8
  %.not = icmp eq ptr %4, null
  br i1 %.not, label %7, label %5

5:                                                ; preds = %3
  %6 = ptrtoint ptr %4 to i64
  tail call void @_ZN9Assembler5mov64E8Registerl(ptr noundef nonnull align 8 dereferenceable(40) %0, i32 %2, i64 noundef %6) #18
  tail call void @_ZN9Assembler4subqE8RegisterS0_(ptr noundef nonnull align 8 dereferenceable(40) %0, i32 %1, i32 %2) #18
  br label %7

7:                                                ; preds = %5, %3
  %8 = load i32, ptr @_ZN23CompressedKlassPointers6_shiftE, align 4
  %.not12 = icmp eq i32 %8, 0
  br i1 %.not12, label %10, label %9

9:                                                ; preds = %7
  tail call void @_ZN9Assembler4shrqE8Registeri(ptr noundef nonnull align 8 dereferenceable(40) %0, i32 %1, i32 noundef 3) #18
  br label %10

10:                                               ; preds = %9, %7
  ret void
}